; ModuleID = '44/863.c'
source_filename = "44/863.c"
target datalayout = "e-m:e-p270:32:32-p271:32:32-p272:64:64-i64:64-f80:128-n8:16:32:64-S128"
target triple = "x86_64-pc-linux-gnu"

@.str = private unnamed_addr constant [3 x i8] c"%d\00", align 1
@.str.1 = private unnamed_addr constant [4 x i8] c"%d\0A\00", align 1

; Function Attrs: noinline nounwind uwtable
define dso_local void @main() #0 {
  %1 = alloca [6 x i32], align 16
  %2 = alloca i32, align 4
  store i32 0, i32* %2, align 4
  br label %3

3:                                                ; preds = %17, %0
  %4 = load i32, i32* %2, align 4
  %5 = icmp slt i32 %4, 6
  br i1 %5, label %6, label %20

6:                                                ; preds = %3
  %7 = load i32, i32* %2, align 4
  %8 = sext i32 %7 to i64
  %9 = getelementptr inbounds [6 x i32], [6 x i32]* %1, i64 0, i64 %8
  %10 = call i32 (i8*, ...) @__isoc99_scanf(i8* getelementptr inbounds ([3 x i8], [3 x i8]* @.str, i64 0, i64 0), i32* %9)
  %11 = load i32, i32* %2, align 4
  %12 = sext i32 %11 to i64
  %13 = getelementptr inbounds [6 x i32], [6 x i32]* %1, i64 0, i64 %12
  %14 = load i32, i32* %13, align 4
  %15 = call i32 @reverse(i32 %14)
  %16 = call i32 (i8*, ...) @printf(i8* getelementptr inbounds ([4 x i8], [4 x i8]* @.str.1, i64 0, i64 0), i32 %15)
  br label %17

17:                                               ; preds = %6
  %18 = load i32, i32* %2, align 4
  %19 = add nsw i32 %18, 1
  store i32 %19, i32* %2, align 4
  br label %3

20:                                               ; preds = %3
  ret void
}

declare dso_local i32 @__isoc99_scanf(i8*, ...) #1

declare dso_local i32 @printf(i8*, ...) #1

; Function Attrs: noinline nounwind uwtable
define dso_local i32 @reverse(i32 %0) #0 {
  %2 = alloca i32, align 4
  %3 = alloca i32, align 4
  %4 = alloca i32, align 4
  store i32 %0, i32* %2, align 4
  store i32 0, i32* %3, align 4
  %5 = load i32, i32* %2, align 4
  %6 = icmp slt i32 %5, 0
  br i1 %6, label %7, label %27

7:                                                ; preds = %1
  %8 = load i32, i32* %2, align 4
  %9 = sitofp i32 %8 to double
  %10 = call double @llvm.fabs.f64(double %9)
  %11 = fptosi double %10 to i32
  store i32 %11, i32* %2, align 4
  br label %12

12:                                               ; preds = %15, %7
  %13 = load i32, i32* %2, align 4
  %14 = icmp sgt i32 %13, 0
  br i1 %14, label %15, label %24

15:                                               ; preds = %12
  %16 = load i32, i32* %2, align 4
  %17 = srem i32 %16, 10
  store i32 %17, i32* %4, align 4
  %18 = load i32, i32* %3, align 4
  %19 = mul nsw i32 %18, 10
  %20 = load i32, i32* %4, align 4
  %21 = add nsw i32 %19, %20
  store i32 %21, i32* %3, align 4
  %22 = load i32, i32* %2, align 4
  %23 = sdiv i32 %22, 10
  store i32 %23, i32* %2, align 4
  br label %12

24:                                               ; preds = %12
  %25 = load i32, i32* %3, align 4
  %26 = sub nsw i32 0, %25
  store i32 %26, i32* %3, align 4
  br label %45

27:                                               ; preds = %1
  %28 = load i32, i32* %2, align 4
  %29 = icmp sge i32 %28, 0
  br i1 %29, label %30, label %44

30:                                               ; preds = %27
  br label %31

31:                                               ; preds = %40, %30
  %32 = load i32, i32* %2, align 4
  %33 = srem i32 %32, 10
  store i32 %33, i32* %4, align 4
  %34 = load i32, i32* %3, align 4
  %35 = mul nsw i32 %34, 10
  %36 = load i32, i32* %4, align 4
  %37 = add nsw i32 %35, %36
  store i32 %37, i32* %3, align 4
  %38 = load i32, i32* %2, align 4
  %39 = sdiv i32 %38, 10
  store i32 %39, i32* %2, align 4
  br label %40

40:                                               ; preds = %31
  %41 = load i32, i32* %2, align 4
  %42 = icmp sgt i32 %41, 0
  br i1 %42, label %31, label %43

43:                                               ; preds = %40
  br label %44

44:                                               ; preds = %43, %27
  br label %45

45:                                               ; preds = %44, %24
  %46 = load i32, i32* %3, align 4
  ret i32 %46
}

; Function Attrs: nounwind readnone speculatable willreturn
declare double @llvm.fabs.f64(double) #2


!llvm.module.flags = !{!0}
!llvm.ident = !{!1}

!0 = !{i32 1, !"wchar_size", i32 4}
!1 = !{!"clang version 10.0.0-4ubuntu1 "}
